Certificate:
    Data:
        Version: 3 (0x2)
        Serial Number: 1 (0x1)
        Signature Algorithm: sha256WithRSAEncryption
        Issuer: CN=devcert
        Validity
            Not Before: May  6 22:46:31 2020 GMT
            Not After : Aug  9 22:46:31 2022 GMT
        Subject: CN=localhost
        Subject Public Key Info:
            Public Key Algorithm: rsaEncryption
                RSA Public-Key: (2048 bit)
                Modulus:
                    00:b0:4e:6d:72:a9:7c:c1:8e:67:b2:95:9a:c3:7f:
                    f4:57:7d:7d:fd:aa:2e:05:4e:f7:26:02:e4:16:a5:
                    94:6e:08:a1:29:e3:ca:5e:6d:fa:63:82:fc:19:ed:
                    c0:85:c4:20:2d:db:6f:ac:af:b8:b1:1d:8d:f3:ad:
                    dd:97:e9:b3:5d:d5:ab:d7:54:72:b9:e1:67:11:2e:
                    51:27:5c:2e:a4:45:83:77:86:ce:bf:fb:50:27:81:
                    35:e7:6a:0c:18:80:20:50:44:4c:aa:82:7f:e5:58:
                    c8:18:7b:26:28:79:2a:2b:13:49:ea:a5:f7:48:4d:
                    f8:4f:a2:f8:b5:01:da:2e:0b:dc:54:ec:fc:12:ab:
                    76:2d:fc:41:ba:45:28:30:6b:6c:ce:4d:9e:f5:e9:
                    5f:dd:b5:ce:a4:6c:ea:a3:a9:d5:c9:75:0e:08:c3:
                    2c:68:5f:27:59:3f:cb:e7:4b:99:2c:0b:46:9b:86:
                    f5:4d:8c:2b:99:91:25:bb:22:82:dc:98:e8:78:59:
                    c3:39:24:0b:90:a5:91:11:bf:f7:2a:74:e8:49:78:
                    87:45:ec:9c:37:5d:f3:3f:ff:b8:7b:c9:96:c4:ab:
                    ca:74:c1:f1:b9:5d:57:a2:e8:c5:c9:cb:d8:00:72:
                    b3:e5:a4:1c:f2:e2:44:5b:74:11:92:de:11:ee:ea:
                    d3:51
                Exponent: 65537 (0x10001)
        X509v3 extensions:
            X509v3 Basic Constraints: critical
                CA:FALSE
            X509v3 Subject Key Identifier: 
                52:A7:0E:E7:1B:33:18:87:69:AA:25:8B:74:45:F0:98:9A:6E:E9:A9
            X509v3 Authority Key Identifier: 
                keyid:65:5B:D5:6E:A5:EE:19:65:7E:56:BA:58:51:03:73:12:F8:7F:CE:7B
                DirName:/CN=devcert
                serial:47:04:66:EC:02:76:8C:26:DC:9F:7F:E9:F8:40:68:C8:78:2E:C8:36

            X509v3 Key Usage: critical
                Digital Signature, Key Encipherment
            X509v3 Extended Key Usage: 
                TLS Web Server Authentication
            X509v3 Subject Alternative Name: 
                DNS:localhost, DNS:*.localhost
    Signature Algorithm: sha256WithRSAEncryption
         3a:66:f6:94:a0:9e:38:d5:c3:4b:c9:a1:9a:06:71:6b:6f:31:
         8d:3d:55:66:ab:dc:a0:c4:ee:b8:10:38:5d:c8:31:af:9d:be:
         41:0e:58:c4:a8:a2:a1:7d:45:f1:2b:5b:5f:87:2a:27:07:c1:
         8b:17:63:4a:c9:6e:98:74:8d:87:00:0c:84:85:ad:24:54:b1:
         bd:2f:23:8f:c9:e9:ea:67:0f:b8:d7:4f:b5:88:00:75:86:2c:
         07:c1:54:ef:9e:35:55:fc:1f:fa:bb:43:35:a5:50:a6:bb:2b:
         0e:b7:d4:c4:bf:50:bf:1a:aa:4b:cc:eb:e2:94:2b:64:7f:02:
         f2:81:21:c4:67:eb:19:61:52:d6:39:f0:51:eb:c7:b9:22:4c:
         f6:ff:8f:2f:2d:a3:23:9e:b8:ac:34:f9:2c:cb:31:1e:74:9f:
         6b:ef:25:3e:0a:26:20:4c:cd:c9:a7:04:b9:8c:83:3c:76:95:
         a5:58:9c:46:92:55:fc:47:9c:bc:2f:3e:05:de:91:2d:7c:0d:
         6b:e5:7e:f0:1a:1f:86:11:38:25:78:e7:48:31:53:dc:01:38:
         50:21:d3:82:5f:63:13:aa:9a:70:c1:03:2f:65:fb:51:2b:fb:
         56:43:7d:cb:b6:fe:52:35:83:c1:9b:f4:e9:e3:b0:6f:57:3b:
         65:f2:bf:06
-----BEGIN CERTIFICATE-----
MIIDaTCCAlGgAwIBAgIBATANBgkqhkiG9w0BAQsFADASMRAwDgYDVQQDDAdkZXZj
ZXJ0MB4XDTIwMDUwNjIyNDYzMVoXDTIyMDgwOTIyNDYzMVowFDESMBAGA1UEAwwJ
bG9jYWxob3N0MIIBIjANBgkqhkiG9w0BAQEFAAOCAQ8AMIIBCgKCAQEAsE5tcql8
wY5nspWaw3/0V319/aouBU73JgLkFqWUbgihKePKXm36Y4L8Ge3AhcQgLdtvrK+4
sR2N863dl+mzXdWr11RyueFnES5RJ1wupEWDd4bOv/tQJ4E152oMGIAgUERMqoJ/
5VjIGHsmKHkqKxNJ6qX3SE34T6L4tQHaLgvcVOz8Eqt2LfxBukUoMGtszk2e9elf
3bXOpGzqo6nVyXUOCMMsaF8nWT/L50uZLAtGm4b1TYwrmZEluyKC3JjoeFnDOSQL
kKWREb/3KnToSXiHReycN13zP/+4e8mWxKvKdMHxuV1XoujFycvYAHKz5aQc8uJE
W3QRkt4R7urTUQIDAQABo4HHMIHEMAwGA1UdEwEB/wQCMAAwHQYDVR0OBBYEFFKn
DucbMxiHaaoli3RF8JiabumpME0GA1UdIwRGMESAFGVb1W6l7hllfla6WFEDcxL4
f857oRakFDASMRAwDgYDVQQDDAdkZXZjZXJ0ghRHBGbsAnaMJtyff+n4QGjIeC7I
NjAOBgNVHQ8BAf8EBAMCBaAwEwYDVR0lBAwwCgYIKwYBBQUHAwEwIQYDVR0RBBow
GIIJbG9jYWxob3N0ggsqLmxvY2FsaG9zdDANBgkqhkiG9w0BAQsFAAOCAQEAOmb2
lKCeONXDS8mhmgZxa28xjT1VZqvcoMTuuBA4Xcgxr52+QQ5YxKiioX1F8StbX4cq
JwfBixdjSslumHSNhwAMhIWtJFSxvS8jj8np6mcPuNdPtYgAdYYsB8FU7541Vfwf
+rtDNaVQprsrDrfUxL9QvxqqS8zr4pQrZH8C8oEhxGfrGWFS1jnwUevHuSJM9v+P
Ly2jI564rDT5LMsxHnSfa+8lPgomIEzNyacEuYyDPHaVpVicRpJV/EecvC8+Bd6R
LXwNa+V+8BofhhE4JXjnSDFT3AE4UCHTgl9jE6qacMEDL2X7USv7VkN9y7b+UjWD
wZv06eOwb1c7ZfK/Bg==
-----END CERTIFICATE-----
