Certificate:
    Data:
        Version: 3 (0x2)
        Serial Number: 1 (0x1)
    Signature Algorithm: sha256WithRSAEncryption
        Issuer: CN=devcert
        Validity
            Not Before: Apr 20 01:31:32 2020 GMT
            Not After : Jul 24 01:31:32 2022 GMT
        Subject: CN=localhost
        Subject Public Key Info:
            Public Key Algorithm: rsaEncryption
                Public-Key: (2048 bit)
                Modulus:
                    00:d4:a6:34:7f:e4:b3:87:04:4d:fc:41:51:62:1f:
                    0a:83:05:b5:11:ba:cf:d8:d3:0b:c5:a7:b4:6a:12:
                    5a:f7:c8:46:af:3e:af:0d:da:79:3b:5a:20:e4:1e:
                    94:5c:e5:ea:76:14:4a:77:ad:ab:90:f8:d1:6b:e0:
                    d0:a7:50:0d:4a:6b:36:f3:cd:cc:ae:f2:0b:7d:b2:
                    e3:91:8a:ef:4f:3e:61:18:e1:eb:48:6b:89:c1:02:
                    5e:9c:88:80:c2:c8:d8:c7:7d:34:cb:7f:8d:52:74:
                    8b:6e:01:a1:63:18:72:a7:b3:9c:3d:08:de:e1:6c:
                    12:aa:83:e2:19:82:66:4c:ca:7d:7c:ef:4c:e3:6a:
                    fa:64:6a:27:f9:4f:d9:45:50:59:7b:8d:4e:28:ce:
                    07:03:6b:0c:c1:5c:cb:28:a3:83:d3:93:5e:1c:0c:
                    2d:55:75:04:c2:5c:ba:cc:73:1a:39:ee:17:55:8d:
                    f2:33:ac:a7:2d:7b:10:b7:3c:22:34:26:0e:69:a8:
                    e2:a3:01:35:15:5d:10:5e:50:1b:72:43:0d:66:d1:
                    2d:a7:6b:e8:c4:6d:ba:8e:29:cf:95:dd:07:7c:bb:
                    5c:23:a8:48:9b:ed:59:59:aa:ea:4b:15:70:f4:8e:
                    f1:c5:4b:e6:56:4c:2b:72:f9:1e:3f:7a:e7:f2:d0:
                    e3:99
                Exponent: 65537 (0x10001)
        X509v3 extensions:
            X509v3 Basic Constraints: critical
                CA:FALSE
            X509v3 Subject Key Identifier: 
                4A:57:B8:35:27:52:60:50:7B:C0:BF:EB:BE:76:84:47:34:80:4C:46
            X509v3 Authority Key Identifier: 
                keyid:17:97:6D:2D:79:7D:B9:1E:A1:27:80:FE:EA:35:84:6B:2D:8E:59:B0
                DirName:/CN=devcert
                serial:D3:72:20:AE:CF:A0:18:D9

            X509v3 Key Usage: critical
                Digital Signature, Key Encipherment
            X509v3 Extended Key Usage: 
                TLS Web Server Authentication
            X509v3 Subject Alternative Name: 
                DNS:localhost, DNS:*.localhost
    Signature Algorithm: sha256WithRSAEncryption
         59:bb:ca:db:10:b9:8f:98:b7:72:78:49:0b:59:07:71:ef:4d:
         89:1c:41:02:6f:63:3e:00:92:41:95:bd:0b:d6:e8:6f:d8:4c:
         a1:38:17:73:9c:3d:5a:38:3f:90:d1:7f:fa:c0:52:d8:05:b3:
         48:9f:0e:66:15:76:17:fb:67:32:fc:ff:4b:db:ed:6a:d8:c0:
         e4:d6:5c:dc:c1:15:67:be:d6:ee:24:71:4a:0c:1c:3e:fd:78:
         ae:0f:70:2e:ea:6b:fe:1c:ae:16:6a:f7:01:b2:63:53:81:5f:
         4b:df:a4:76:8a:dd:cd:53:59:b8:fb:e0:2c:42:6f:ae:79:5d:
         64:47:f4:ad:9d:84:8b:e0:01:56:32:8f:52:06:ed:62:b3:1a:
         f3:98:23:5c:05:6b:84:c6:15:62:74:1e:46:ee:32:73:9c:53:
         d9:2a:aa:b0:f7:17:6b:17:09:f2:60:81:39:c7:ec:af:e8:56:
         ff:d0:9d:b4:81:95:97:ec:4d:e3:75:dd:67:bd:4d:a5:7b:c3:
         16:a9:5d:39:27:4d:1b:20:77:05:bd:54:21:a3:89:5c:82:37:
         bf:f8:53:d3:8f:52:a8:50:c0:bd:7b:b2:99:f3:ec:3d:c4:ba:
         6b:1a:a3:f8:e9:26:3a:84:ad:c1:e6:c3:9e:7d:9e:e0:69:e2:
         13:5e:42:66
-----BEGIN CERTIFICATE-----
MIIDXjCCAkagAwIBAgIBATANBgkqhkiG9w0BAQsFADASMRAwDgYDVQQDDAdkZXZj
ZXJ0MB4XDTIwMDQyMDAxMzEzMloXDTIyMDcyNDAxMzEzMlowFDESMBAGA1UEAwwJ
bG9jYWxob3N0MIIBIjANBgkqhkiG9w0BAQEFAAOCAQ8AMIIBCgKCAQEA1KY0f+Sz
hwRN/EFRYh8KgwW1EbrP2NMLxae0ahJa98hGrz6vDdp5O1og5B6UXOXqdhRKd62r
kPjRa+DQp1ANSms2883MrvILfbLjkYrvTz5hGOHrSGuJwQJenIiAwsjYx300y3+N
UnSLbgGhYxhyp7OcPQje4WwSqoPiGYJmTMp9fO9M42r6ZGon+U/ZRVBZe41OKM4H
A2sMwVzLKKOD05NeHAwtVXUEwly6zHMaOe4XVY3yM6ynLXsQtzwiNCYOaajiowE1
FV0QXlAbckMNZtEtp2voxG26jinPld0HfLtcI6hIm+1ZWarqSxVw9I7xxUvmVkwr
cvkeP3rn8tDjmQIDAQABo4G8MIG5MAwGA1UdEwEB/wQCMAAwHQYDVR0OBBYEFEpX
uDUnUmBQe8C/6752hEc0gExGMEIGA1UdIwQ7MDmAFBeXbS15fbkeoSeA/uo1hGst
jlmwoRakFDASMRAwDgYDVQQDDAdkZXZjZXJ0ggkA03Igrs+gGNkwDgYDVR0PAQH/
BAQDAgWgMBMGA1UdJQQMMAoGCCsGAQUFBwMBMCEGA1UdEQQaMBiCCWxvY2FsaG9z
dIILKi5sb2NhbGhvc3QwDQYJKoZIhvcNAQELBQADggEBAFm7ytsQuY+Yt3J4SQtZ
B3HvTYkcQQJvYz4AkkGVvQvW6G/YTKE4F3OcPVo4P5DRf/rAUtgFs0ifDmYVdhf7
ZzL8/0vb7WrYwOTWXNzBFWe+1u4kcUoMHD79eK4PcC7qa/4crhZq9wGyY1OBX0vf
pHaK3c1TWbj74CxCb655XWRH9K2dhIvgAVYyj1IG7WKzGvOYI1wFa4TGFWJ0Hkbu
MnOcU9kqqrD3F2sXCfJggTnH7K/oVv/QnbSBlZfsTeN13We9TaV7wxapXTknTRsg
dwW9VCGjiVyCN7/4U9OPUqhQwL17spnz7D3Eumsao/jpJjqErcHmw559nuBp4hNe
QmY=
-----END CERTIFICATE-----
